target datalayout = "e-m:e-p270:32:32-p271:32:32-p272:64:64-i64:64-i128:128-f80:128-n8:16:32:64-S128"
target triple = "x86_64-pc-linux-gnu"

%class.ext_numeral = type { i32, %class.rational }
%class.rational = type { %class.mpq }
%class.mpq = type { %class.mpz, %class.mpz }
%class.mpz = type { i32, i8, ptr }

@_ZN8rational13g_mpq_managerE = external global ptr, align 8

; Function Attrs: inlinehint mustprogress nounwind uwtable
define linkonce_odr hidden void @_ZSt4swapIP8mpz_cellENSt9enable_ifIXsr6__and_ISt6__not_ISt15__is_tuple_likeIT_EESt21is_move_constructibleIS5_ESt18is_move_assignableIS5_EEE5valueEvE4typeERS5_SE_(ptr noundef nonnull align 8 dereferenceable(8) %0, ptr noundef nonnull align 8 dereferenceable(8) %1) #8 comdat {
  %3 = alloca ptr, align 8
  %4 = alloca ptr, align 8
  %5 = alloca ptr, align 8
  store ptr %0, ptr %3, align 8, !tbaa !70
  store ptr %1, ptr %4, align 8, !tbaa !70
  call void @llvm.lifetime.start.p0(i64 8, ptr %5) #3
  %6 = load ptr, ptr %3, align 8, !tbaa !70
  %7 = load ptr, ptr %6, align 8, !tbaa !72
  store ptr %7, ptr %5, align 8, !tbaa !72
  %8 = load ptr, ptr %4, align 8, !tbaa !70
  %9 = load ptr, ptr %8, align 8, !tbaa !72
  %10 = load ptr, ptr %3, align 8, !tbaa !70
  store ptr %9, ptr %10, align 8, !tbaa !72
  %11 = load ptr, ptr %5, align 8, !tbaa !72
  %12 = load ptr, ptr %4, align 8, !tbaa !70
  store ptr %11, ptr %12, align 8, !tbaa !72
  call void @llvm.lifetime.end.p0(i64 8, ptr %5) #3
  ret void
}

; Function Attrs: inlinehint mustprogress nounwind uwtable
define linkonce_odr void @_ZSt4swapIiENSt9enable_ifIXsr6__and_ISt6__not_ISt15__is_tuple_likeIT_EESt21is_move_constructibleIS3_ESt18is_move_assignableIS3_EEE5valueEvE4typeERS3_SC_(ptr noundef nonnull align 4 dereferenceable(4) %0, ptr noundef nonnull align 4 dereferenceable(4) %1) #8 comdat {
  %3 = alloca ptr, align 8
  %4 = alloca ptr, align 8
  %5 = alloca i32, align 4
  store ptr %0, ptr %3, align 8, !tbaa !68
  store ptr %1, ptr %4, align 8, !tbaa !68
  call void @llvm.lifetime.start.p0(i64 4, ptr %5) #3
  %6 = load ptr, ptr %3, align 8, !tbaa !68
  %7 = load i32, ptr %6, align 4, !tbaa !18
  store i32 %7, ptr %5, align 4, !tbaa !18
  %8 = load ptr, ptr %4, align 8, !tbaa !68
  %9 = load i32, ptr %8, align 4, !tbaa !18
  %10 = load ptr, ptr %3, align 8, !tbaa !68
  store i32 %9, ptr %10, align 4, !tbaa !18
  %11 = load i32, ptr %5, align 4, !tbaa !18
  %12 = load ptr, ptr %4, align 8, !tbaa !68
  store i32 %11, ptr %12, align 4, !tbaa !18
  call void @llvm.lifetime.end.p0(i64 4, ptr %5) #3
  ret void
}

; Function Attrs: mustprogress nounwind uwtable
define linkonce_odr hidden void @_ZN3mpz4swapERS_(ptr noundef nonnull align 8 dereferenceable(16) %0, ptr noundef nonnull align 8 dereferenceable(16) %1) #5 comdat align 2 {
  %3 = alloca ptr, align 8
  %4 = alloca ptr, align 8
  %5 = alloca i32, align 4
  %6 = alloca i32, align 4
  store ptr %0, ptr %3, align 8, !tbaa !62
  store ptr %1, ptr %4, align 8, !tbaa !62
  %7 = load ptr, ptr %3, align 8
  %8 = getelementptr inbounds nuw %class.mpz, ptr %7, i32 0, i32 0
  %9 = load ptr, ptr %4, align 8, !tbaa !62
  %10 = getelementptr inbounds nuw %class.mpz, ptr %9, i32 0, i32 0
  call void @_ZSt4swapIiENSt9enable_ifIXsr6__and_ISt6__not_ISt15__is_tuple_likeIT_EESt21is_move_constructibleIS3_ESt18is_move_assignableIS3_EEE5valueEvE4typeERS3_SC_(ptr noundef nonnull align 4 dereferenceable(4) %8, ptr noundef nonnull align 4 dereferenceable(4) %10) #3
  %11 = getelementptr inbounds nuw %class.mpz, ptr %7, i32 0, i32 2
  %12 = load ptr, ptr %4, align 8, !tbaa !62
  %13 = getelementptr inbounds nuw %class.mpz, ptr %12, i32 0, i32 2
  call void @_ZSt4swapIP8mpz_cellENSt9enable_ifIXsr6__and_ISt6__not_ISt15__is_tuple_likeIT_EESt21is_move_constructibleIS5_ESt18is_move_assignableIS5_EEE5valueEvE4typeERS5_SE_(ptr noundef nonnull align 8 dereferenceable(8) %11, ptr noundef nonnull align 8 dereferenceable(8) %13) #3
  call void @llvm.lifetime.start.p0(i64 4, ptr %5) #3
  %14 = getelementptr inbounds nuw %class.mpz, ptr %7, i32 0, i32 1
  %15 = load i8, ptr %14, align 4
  %16 = lshr i8 %15, 1
  %17 = and i8 %16, 1
  %18 = zext i8 %17 to i32
  store i32 %18, ptr %5, align 4, !tbaa !18
  %19 = load ptr, ptr %4, align 8, !tbaa !62
  %20 = getelementptr inbounds nuw %class.mpz, ptr %19, i32 0, i32 1
  %21 = load i8, ptr %20, align 4
  %22 = lshr i8 %21, 1
  %23 = and i8 %22, 1
  %24 = zext i8 %23 to i32
  %25 = getelementptr inbounds nuw %class.mpz, ptr %7, i32 0, i32 1
  %26 = trunc i32 %24 to i8
  %27 = load i8, ptr %25, align 4
  %28 = and i8 %26, 1
  %29 = shl i8 %28, 1
  %30 = and i8 %27, -3
  %31 = or i8 %30, %29
  store i8 %31, ptr %25, align 4
  %32 = load i32, ptr %5, align 4, !tbaa !18
  %33 = load ptr, ptr %4, align 8, !tbaa !62
  %34 = getelementptr inbounds nuw %class.mpz, ptr %33, i32 0, i32 1
  %35 = trunc i32 %32 to i8
  %36 = load i8, ptr %34, align 4
  %37 = and i8 %35, 1
  %38 = shl i8 %37, 1
  %39 = and i8 %36, -3
  %40 = or i8 %39, %38
  store i8 %40, ptr %34, align 4
  call void @llvm.lifetime.start.p0(i64 4, ptr %6) #3
  %41 = getelementptr inbounds nuw %class.mpz, ptr %7, i32 0, i32 1
  %42 = load i8, ptr %41, align 4
  %43 = and i8 %42, 1
  %44 = zext i8 %43 to i32
  store i32 %44, ptr %6, align 4, !tbaa !18
  %45 = load ptr, ptr %4, align 8, !tbaa !62
  %46 = getelementptr inbounds nuw %class.mpz, ptr %45, i32 0, i32 1
  %47 = load i8, ptr %46, align 4
  %48 = and i8 %47, 1
  %49 = zext i8 %48 to i32
  %50 = getelementptr inbounds nuw %class.mpz, ptr %7, i32 0, i32 1
  %51 = trunc i32 %49 to i8
  %52 = load i8, ptr %50, align 4
  %53 = and i8 %51, 1
  %54 = and i8 %52, -2
  %55 = or i8 %54, %53
  store i8 %55, ptr %50, align 4
  %56 = load i32, ptr %6, align 4, !tbaa !18
  %57 = load ptr, ptr %4, align 8, !tbaa !62
  %58 = getelementptr inbounds nuw %class.mpz, ptr %57, i32 0, i32 1
  %59 = trunc i32 %56 to i8
  %60 = load i8, ptr %58, align 4
  %61 = and i8 %59, 1
  %62 = and i8 %60, -2
  %63 = or i8 %62, %61
  store i8 %63, ptr %58, align 4
  call void @llvm.lifetime.end.p0(i64 4, ptr %6) #3
  call void @llvm.lifetime.end.p0(i64 4, ptr %5) #3
  ret void
}

; Function Attrs: mustprogress nounwind uwtable
define linkonce_odr hidden void @_ZN3mpzC2Ei(ptr noundef nonnull align 8 dereferenceable(16) %0, i32 noundef %1) unnamed_addr #5 comdat align 2 {
  %3 = alloca ptr, align 8
  %4 = alloca i32, align 4
  store ptr %0, ptr %3, align 8, !tbaa !62
  store i32 %1, ptr %4, align 4, !tbaa !18
  %5 = load ptr, ptr %3, align 8
  %6 = getelementptr inbounds nuw %class.mpz, ptr %5, i32 0, i32 0
  %7 = load i32, ptr %4, align 4, !tbaa !18
  store i32 %7, ptr %6, align 8, !tbaa !64
  %8 = getelementptr inbounds nuw %class.mpz, ptr %5, i32 0, i32 1
  %9 = load i8, ptr %8, align 4
  %10 = and i8 %9, -2
  %11 = or i8 %10, 0
  store i8 %11, ptr %8, align 4
  %12 = getelementptr inbounds nuw %class.mpz, ptr %5, i32 0, i32 1
  %13 = load i8, ptr %12, align 4
  %14 = and i8 %13, -3
  %15 = or i8 %14, 0
  store i8 %15, ptr %12, align 4
  %16 = getelementptr inbounds nuw %class.mpz, ptr %5, i32 0, i32 2
  store ptr null, ptr %16, align 8, !tbaa !67
  ret void
}

; Function Attrs: mustprogress nounwind uwtable
define linkonce_odr hidden void @_ZN3mpzC2Ev(ptr noundef nonnull align 8 dereferenceable(16) %0) unnamed_addr #5 comdat align 2 {
  %2 = alloca ptr, align 8
  store ptr %0, ptr %2, align 8, !tbaa !62
  %3 = load ptr, ptr %2, align 8
  %4 = getelementptr inbounds nuw %class.mpz, ptr %3, i32 0, i32 0
  store i32 0, ptr %4, align 8, !tbaa !64
  %5 = getelementptr inbounds nuw %class.mpz, ptr %3, i32 0, i32 1
  %6 = load i8, ptr %5, align 4
  %7 = and i8 %6, -2
  %8 = or i8 %7, 0
  store i8 %8, ptr %5, align 4
  %9 = getelementptr inbounds nuw %class.mpz, ptr %3, i32 0, i32 1
  %10 = load i8, ptr %9, align 4
  %11 = and i8 %10, -3
  %12 = or i8 %11, 0
  store i8 %12, ptr %9, align 4
  %13 = getelementptr inbounds nuw %class.mpz, ptr %3, i32 0, i32 2
  store ptr null, ptr %13, align 8, !tbaa !67
  ret void
}

; Function Attrs: mustprogress nounwind uwtable
define linkonce_odr hidden noundef nonnull align 8 dereferenceable(16) ptr @_ZN3mpzaSEOS_(ptr noundef nonnull align 8 dereferenceable(16) %0, ptr noundef nonnull align 8 dereferenceable(16) %1) #5 comdat align 2 {
  %3 = alloca ptr, align 8
  %4 = alloca ptr, align 8
  store ptr %0, ptr %3, align 8, !tbaa !62
  store ptr %1, ptr %4, align 8, !tbaa !62
  %5 = load ptr, ptr %3, align 8
  %6 = load ptr, ptr %4, align 8, !tbaa !62
  call void @_ZN3mpz4swapERS_(ptr noundef nonnull align 8 dereferenceable(16) %5, ptr noundef nonnull align 8 dereferenceable(16) %6) #3
  ret ptr %5
}

; Function Attrs: mustprogress uwtable
define linkonce_odr hidden void @_ZN3mpqC2Ev(ptr noundef nonnull align 8 dereferenceable(32) %0) unnamed_addr #4 comdat align 2 {
  %2 = alloca ptr, align 8
  store ptr %0, ptr %2, align 8, !tbaa !60
  %3 = load ptr, ptr %2, align 8
  %4 = getelementptr inbounds nuw %class.mpq, ptr %3, i32 0, i32 0
  call void @_ZN3mpzC2Ev(ptr noundef nonnull align 8 dereferenceable(16) %4)
  %5 = getelementptr inbounds nuw %class.mpq, ptr %3, i32 0, i32 1
  call void @_ZN3mpzC2Ei(ptr noundef nonnull align 8 dereferenceable(16) %5, i32 noundef 1)
  ret void
}

; Function Attrs: mustprogress nounwind uwtable
define linkonce_odr hidden noundef nonnull align 8 dereferenceable(32) ptr @_ZN3mpqaSEOS_(ptr noundef nonnull align 8 dereferenceable(32) %0, ptr noundef nonnull align 8 dereferenceable(32) %1) #5 comdat align 2 {
  %3 = alloca ptr, align 8
  %4 = alloca ptr, align 8
  store ptr %0, ptr %3, align 8, !tbaa !60
  store ptr %1, ptr %4, align 8, !tbaa !60
  %5 = load ptr, ptr %3, align 8
  %6 = getelementptr inbounds nuw %class.mpq, ptr %5, i32 0, i32 0
  %7 = load ptr, ptr %4, align 8, !tbaa !60
  %8 = getelementptr inbounds nuw %class.mpq, ptr %7, i32 0, i32 0
  %9 = call noundef nonnull align 8 dereferenceable(16) ptr @_ZN3mpzaSEOS_(ptr noundef nonnull align 8 dereferenceable(16) %6, ptr noundef nonnull align 8 dereferenceable(16) %8) #3
  %10 = getelementptr inbounds nuw %class.mpq, ptr %5, i32 0, i32 1
  %11 = load ptr, ptr %4, align 8, !tbaa !60
  %12 = getelementptr inbounds nuw %class.mpq, ptr %11, i32 0, i32 1
  %13 = call noundef nonnull align 8 dereferenceable(16) ptr @_ZN3mpzaSEOS_(ptr noundef nonnull align 8 dereferenceable(16) %10, ptr noundef nonnull align 8 dereferenceable(16) %12) #3
  ret ptr %5
}

; Function Attrs: mustprogress nounwind uwtable
define linkonce_odr hidden noundef nonnull align 8 dereferenceable(728) ptr @_ZN8rational1mEv() #5 comdat align 2 {
  %1 = load ptr, ptr @_ZN8rational13g_mpq_managerE, align 8, !tbaa !19
  ret ptr %1
}

; Function Attrs: mustprogress uwtable
define linkonce_odr hidden void @_ZN8rationalC2Ev(ptr noundef nonnull align 8 dereferenceable(32) %0) unnamed_addr #4 comdat align 2 {
  %2 = alloca ptr, align 8
  store ptr %0, ptr %2, align 8, !tbaa !16
  %3 = load ptr, ptr %2, align 8
  %4 = getelementptr inbounds nuw %class.rational, ptr %3, i32 0, i32 0
  call void @_ZN3mpqC2Ev(ptr noundef nonnull align 8 dereferenceable(32) %4)
  ret void
}

; Function Attrs: mustprogress nounwind uwtable
define linkonce_odr hidden noundef nonnull align 8 dereferenceable(32) ptr @_ZN8rationalaSEOS_(ptr noundef nonnull align 8 dereferenceable(32) %0, ptr noundef nonnull align 8 dereferenceable(32) %1) #5 comdat align 2 {
  %3 = alloca ptr, align 8
  %4 = alloca ptr, align 8
  store ptr %0, ptr %3, align 8, !tbaa !16
  store ptr %1, ptr %4, align 8, !tbaa !16
  %5 = load ptr, ptr %3, align 8
  %6 = getelementptr inbounds nuw %class.rational, ptr %5, i32 0, i32 0
  %7 = load ptr, ptr %4, align 8, !tbaa !16
  %8 = getelementptr inbounds nuw %class.rational, ptr %7, i32 0, i32 0
  %9 = call noundef nonnull align 8 dereferenceable(32) ptr @_ZN3mpqaSEOS_(ptr noundef nonnull align 8 dereferenceable(32) %6, ptr noundef nonnull align 8 dereferenceable(32) %8) #3
  ret ptr %5
}

; Function Attrs: mustprogress uwtable
define linkonce_odr hidden void @_ZNK8rational4exptEi(ptr dead_on_unwind noalias writable sret(%class.rational) align 8 %0, ptr noundef nonnull align 8 dereferenceable(32) %1, i32 noundef %2) #4 comdat align 2 personality ptr @__gxx_personality_v0 {
  %4 = alloca ptr, align 8
  %5 = alloca ptr, align 8
  %6 = alloca i32, align 4
  %7 = alloca i1, align 1
  %8 = alloca ptr, align 8
  %9 = alloca i32, align 4
  store ptr %0, ptr %4, align 8
  store ptr %1, ptr %5, align 8, !tbaa !16
  store i32 %2, ptr %6, align 4, !tbaa !18
  %10 = load ptr, ptr %5, align 8
  store i1 false, ptr %7, align 1
  call void @_ZN8rationalC2Ev(ptr noundef nonnull align 8 dereferenceable(32) %0)
  %11 = call noundef nonnull align 8 dereferenceable(728) ptr @_ZN8rational1mEv()
  %12 = getelementptr inbounds nuw %class.rational, ptr %10, i32 0, i32 0
  %13 = load i32, ptr %6, align 4, !tbaa !18
  %14 = getelementptr inbounds nuw %class.rational, ptr %0, i32 0, i32 0
  invoke void @_ZN11mpq_managerILb1EE5powerERK3mpqjRS1_(ptr noundef nonnull align 8 dereferenceable(728) %11, ptr noundef nonnull align 8 dereferenceable(32) %12, i32 noundef %13, ptr noundef nonnull align 8 dereferenceable(32) %14)
          to label %15 unwind label %17

15:                                               ; preds = %3
  store i1 true, ptr %7, align 1
  %16 = load i1, ptr %7, align 1
  br i1 %16, label %22, label %21

17:                                               ; preds = %3
  %18 = landingpad { ptr, i32 }
          cleanup
  %19 = extractvalue { ptr, i32 } %18, 0
  store ptr %19, ptr %8, align 8
  %20 = extractvalue { ptr, i32 } %18, 1
  store i32 %20, ptr %9, align 4
  call void @_ZN8rationalD2Ev(ptr noundef nonnull align 8 dereferenceable(32) %0) #3
  br label %23

21:                                               ; preds = %15
  call void @_ZN8rationalD2Ev(ptr noundef nonnull align 8 dereferenceable(32) %0) #3
  br label %22

22:                                               ; preds = %21, %15
  ret void

23:                                               ; preds = %17
  %24 = load ptr, ptr %8, align 8
  %25 = load i32, ptr %9, align 4
  %26 = insertvalue { ptr, i32 } poison, ptr %24, 0
  %27 = insertvalue { ptr, i32 } %26, i32 %25, 1
  resume { ptr, i32 } %27
}

; Function Attrs: mustprogress uwtable
define hidden void @_ZN11ext_numeral4exptEj(ptr noundef nonnull align 8 dereferenceable(40) %0, i32 noundef %1) #4 align 2 {
  %3 = alloca ptr, align 8
  %4 = alloca i32, align 4
  %5 = alloca %class.rational, align 8
  store ptr %0, ptr %3, align 8, !tbaa !3
  store i32 %1, ptr %4, align 4, !tbaa !18
  %6 = load ptr, ptr %3, align 8
  %7 = getelementptr inbounds nuw %class.ext_numeral, ptr %6, i32 0, i32 0
  %8 = load i32, ptr %7, align 8, !tbaa !8
  switch i32 %8, label %21 [
    i32 0, label %9
    i32 1, label %16
    i32 2, label %21
  ]

9:                                                ; preds = %2
  %10 = load i32, ptr %4, align 4, !tbaa !18
  %11 = urem i32 %10, 2
  %12 = icmp eq i32 %11, 0
  br i1 %12, label %13, label %15

13:                                               ; preds = %9
  %14 = getelementptr inbounds nuw %class.ext_numeral, ptr %6, i32 0, i32 0
  store i32 2, ptr %14, align 8, !tbaa !8
  br label %15

15:                                               ; preds = %13, %9
  br label %21

16:                                               ; preds = %2
  call void @llvm.lifetime.start.p0(i64 32, ptr %5) #3
  %17 = getelementptr inbounds nuw %class.ext_numeral, ptr %6, i32 0, i32 1
  %18 = load i32, ptr %4, align 4, !tbaa !18
  call void @_ZNK8rational4exptEi(ptr dead_on_unwind writable sret(%class.rational) align 8 %5, ptr noundef nonnull align 8 dereferenceable(32) %17, i32 noundef %18)
  %19 = getelementptr inbounds nuw %class.ext_numeral, ptr %6, i32 0, i32 1
  %20 = call noundef nonnull align 8 dereferenceable(32) ptr @_ZN8rationalaSEOS_(ptr noundef nonnull align 8 dereferenceable(32) %19, ptr noundef nonnull align 8 dereferenceable(32) %5) #3
  call void @_ZN8rationalD2Ev(ptr noundef nonnull align 8 dereferenceable(32) %5) #3
  call void @llvm.lifetime.end.p0(i64 32, ptr %5) #3
  br label %21

21:                                               ; preds = %15, %2, %2, %16
  ret void
}