; Function Attrs: mustprogress uwtable
define hidden void @_ZN11ext_numeral4exptEj(ptr noundef nonnull align 8 dereferenceable(40) %0, i32 noundef %1) local_unnamed_addr #3 align 2 personality ptr @__gxx_personality_v0 {
  %3 = alloca %class.rational, align 8
  %4 = load i32, ptr %0, align 8, !tbaa !3
  switch i32 %4, label %52 [
    i32 0, label %5
    i32 1, label %9
  ]

5:                                                ; preds = %2
  %6 = and i32 %1, 1
  %7 = icmp eq i32 %6, 0
  br i1 %7, label %8, label %52

8:                                                ; preds = %5
  store i32 2, ptr %0, align 8, !tbaa !3
  br label %52

9:                                                ; preds = %2
  call void @llvm.lifetime.start.p0(i64 32, ptr nonnull %3) #22
  %10 = getelementptr inbounds nuw i8, ptr %0, i64 8
  tail call void @llvm.experimental.noalias.scope.decl(metadata !17)
  store i32 0, ptr %3, align 8, !tbaa !16, !alias.scope !17
  %11 = getelementptr inbounds nuw i8, ptr %3, i64 4
  store i8 0, ptr %11, align 4, !alias.scope !17
  %12 = getelementptr inbounds nuw i8, ptr %3, i64 8
  store ptr null, ptr %12, align 8, !tbaa !20, !alias.scope !17
  %13 = getelementptr inbounds nuw i8, ptr %3, i64 16
  store i32 1, ptr %13, align 8, !tbaa !16, !alias.scope !17
  %14 = getelementptr inbounds nuw i8, ptr %3, i64 20
  store i8 0, ptr %14, align 4, !alias.scope !17
  %15 = getelementptr inbounds nuw i8, ptr %3, i64 24
  store ptr null, ptr %15, align 8, !tbaa !20, !alias.scope !17
  %16 = load ptr, ptr @_ZN8rational13g_mpq_managerE, align 8, !tbaa !14, !noalias !17
  invoke void @_ZN11mpq_managerILb1EE5powerERK3mpqjRS1_(ptr noundef nonnull align 8 dereferenceable(728) %16, ptr noundef nonnull align 8 dereferenceable(32) %10, i32 noundef %1, ptr noundef nonnull align 8 dereferenceable(32) %3)
          to label %_ZNK8rational4exptEi.exit unwind label %17

17:                                               ; preds = %9
  %18 = landingpad { ptr, i32 }
          cleanup
  call void @_ZN8rationalD2Ev(ptr noundef nonnull align 8 dereferenceable(32) %3) #22
  resume { ptr, i32 } %18

_ZNK8rational4exptEi.exit:                        ; preds = %9
  %19 = load i32, ptr %10, align 8, !tbaa !21
  %20 = load i32, ptr %3, align 8, !tbaa !21
  store i32 %20, ptr %10, align 8, !tbaa !21
  store i32 %19, ptr %3, align 8, !tbaa !21
  %21 = getelementptr inbounds nuw i8, ptr %0, i64 16
  %22 = load ptr, ptr %21, align 8, !tbaa !22
  %23 = load ptr, ptr %12, align 8, !tbaa !22
  store ptr %23, ptr %21, align 8, !tbaa !22
  store ptr %22, ptr %12, align 8, !tbaa !22
  %24 = getelementptr inbounds nuw i8, ptr %0, i64 12
  %25 = load i8, ptr %24, align 4
  %26 = load i8, ptr %11, align 4
  %27 = and i8 %25, -4
  %28 = and i8 %26, -4
  %29 = and i8 %26, 3
  %30 = or disjoint i8 %29, %27
  store i8 %30, ptr %24, align 4
  %31 = and i8 %25, 3
  %32 = or disjoint i8 %28, %31
  store i8 %32, ptr %11, align 4
  %33 = getelementptr inbounds nuw i8, ptr %0, i64 24
  %34 = load i32, ptr %33, align 8, !tbaa !21
  %35 = load i32, ptr %13, align 8, !tbaa !21
  store i32 %35, ptr %33, align 8, !tbaa !21
  store i32 %34, ptr %13, align 8, !tbaa !21
  %36 = getelementptr inbounds nuw i8, ptr %0, i64 32
  %37 = load ptr, ptr %36, align 8, !tbaa !22
  %38 = load ptr, ptr %15, align 8, !tbaa !22
  store ptr %38, ptr %36, align 8, !tbaa !22
  store ptr %37, ptr %15, align 8, !tbaa !22
  %39 = getelementptr inbounds nuw i8, ptr %0, i64 28
  %40 = load i8, ptr %39, align 4
  %41 = load i8, ptr %14, align 4
  %42 = and i8 %40, -4
  %43 = and i8 %41, -4
  %44 = and i8 %41, 3
  %45 = or disjoint i8 %44, %42
  store i8 %45, ptr %39, align 4
  %46 = and i8 %40, 3
  %47 = or disjoint i8 %43, %46
  store i8 %47, ptr %14, align 4
  %48 = load ptr, ptr @_ZN8rational13g_mpq_managerE, align 8, !tbaa !14
  invoke void @_ZN11mpz_managerILb1EE3delEPS0_R3mpz(ptr noundef %48, ptr noundef nonnull align 8 dereferenceable(32) %3)
          to label %.noexc.i unwind label %49

.noexc.i:                                         ; preds = %_ZNK8rational4exptEi.exit
  invoke void @_ZN11mpz_managerILb1EE3delEPS0_R3mpz(ptr noundef %48, ptr noundef nonnull align 8 dereferenceable(16) %13)
          to label %_ZN8rationalD2Ev.exit unwind label %49

49:                                               ; preds = %.noexc.i, %_ZNK8rational4exptEi.exit
  %50 = landingpad { ptr, i32 }
          catch ptr null
  %51 = extractvalue { ptr, i32 } %50, 0
  call void @__clang_call_terminate(ptr %51) #23
  unreachable

_ZN8rationalD2Ev.exit:                            ; preds = %.noexc.i
  call void @llvm.lifetime.end.p0(i64 32, ptr nonnull %3) #22
  br label %52

52:                                               ; preds = %5, %8, %_ZN8rationalD2Ev.exit, %2
  ret void
}